target datalayout = "e-m:e-p270:32:32-p271:32:32-p272:64:64-i64:64-i128:128-f80:128-n8:16:32:64-S128"
target triple = "x86_64-pc-linux-gnu"

%struct.ueid_frame_t = type { i32, i16 }
%struct.pdcp_lte_security_info_t = type { i32, i8, i32, i32, i32, i32, i32 }

@global_pdcp_ignore_sec = internal global i8 0, align 1
@pdcp_security_hash = internal global ptr null, align 8
@pdcp_security_result_hash = internal global ptr null, align 8
@get_ueid_frame_hash_key.key = internal global %struct.ueid_frame_t zeroinitializer, align 4

; Function Attrs: alwaysinline nounwind
define internal ptr @memset.inline(ptr %0, i32 %1, i64 %2) #8 {
  %4 = alloca ptr, align 8
  %5 = alloca i32, align 4
  %6 = alloca i64, align 8
  store ptr %0, ptr %4, align 8
  store i32 %1, ptr %5, align 4
  store i64 %2, ptr %6, align 8
  %7 = load ptr, ptr %4, align 8
  %8 = load i32, ptr %5, align 4
  %9 = load i64, ptr %6, align 8
  %10 = load ptr, ptr %4, align 8
  %11 = call i64 @llvm.objectsize.i64.p0(ptr %10, i1 false, i1 true, i1 true)
  %12 = call ptr @__memset_chk(ptr noundef %7, i32 noundef %8, i64 noundef %9, i64 noundef %11) #15
  ret ptr %12
}

; Function Attrs: null_pointer_is_valid sspstrong uwtable
define internal ptr @get_ueid_frame_hash_key(i16 noundef zeroext %0, i32 noundef %1, i1 noundef zeroext %2) #0 {
  %4 = alloca i16, align 2
  %5 = alloca i32, align 4
  %6 = alloca i8, align 1
  %7 = alloca ptr, align 8
  store i16 %0, ptr %4, align 2
  store i32 %1, ptr %5, align 4
  %8 = zext i1 %2 to i8
  store i8 %8, ptr %6, align 1
  call void @llvm.lifetime.start.p0(i64 8, ptr %7) #15
  %9 = load i8, ptr %6, align 1, !range !8, !noundef !9
  %10 = trunc i8 %9 to i1
  br i1 %10, label %11, label %14

11:                                               ; preds = %3
  %12 = call ptr @wmem_file_scope()
  %13 = call noalias ptr @wmem_alloc(ptr noundef %12, i64 noundef 8) #16
  store ptr %13, ptr %7, align 8
  br label %16

14:                                               ; preds = %3
  %15 = call ptr @memset.inline(ptr noundef @get_ueid_frame_hash_key.key, i32 noundef 0, i64 noundef 8) #15
  store ptr @get_ueid_frame_hash_key.key, ptr %7, align 8
  br label %16

16:                                               ; preds = %14, %11
  %17 = load i32, ptr %5, align 4
  %18 = load ptr, ptr %7, align 8
  %19 = getelementptr inbounds nuw %struct.ueid_frame_t, ptr %18, i32 0, i32 0
  store i32 %17, ptr %19, align 4
  %20 = load i16, ptr %4, align 2
  %21 = load ptr, ptr %7, align 8
  %22 = getelementptr inbounds nuw %struct.ueid_frame_t, ptr %21, i32 0, i32 1
  store i16 %20, ptr %22, align 4
  %23 = load ptr, ptr %7, align 8
  call void @llvm.lifetime.end.p0(i64 8, ptr %7) #15
  ret ptr %23
}

; Function Attrs: null_pointer_is_valid sspstrong uwtable
define hidden void @set_pdcp_lte_security_algorithms(i16 noundef zeroext %0, ptr noundef %1) #0 {
  %3 = alloca i16, align 2
  %4 = alloca ptr, align 8
  %5 = alloca ptr, align 8
  %6 = alloca i32, align 4
  %7 = alloca ptr, align 8
  store i16 %0, ptr %3, align 2
  store ptr %1, ptr %4, align 8
  call void @llvm.lifetime.start.p0(i64 8, ptr %5) #15
  %8 = load i8, ptr @global_pdcp_ignore_sec, align 1, !range !8, !noundef !9
  %9 = trunc i8 %8 to i1
  br i1 %9, label %10, label %11

10:                                               ; preds = %2
  store i32 1, ptr %6, align 4
  br label %78

11:                                               ; preds = %2
  call void @llvm.lifetime.start.p0(i64 8, ptr %7) #15
  %12 = load ptr, ptr @pdcp_security_hash, align 8
  %13 = load i16, ptr %3, align 2
  %14 = zext i16 %13 to i32
  %15 = zext i32 %14 to i64
  %16 = inttoptr i64 %15 to ptr
  %17 = call ptr @wmem_map_lookup(ptr noundef %12, ptr noundef %16)
  store ptr %17, ptr %7, align 8
  %18 = load ptr, ptr %7, align 8
  %19 = icmp eq ptr %18, null
  br i1 %19, label %20, label %32

20:                                               ; preds = %11
  %21 = call ptr @wmem_file_scope()
  %22 = call noalias ptr @wmem_alloc(ptr noundef %21, i64 noundef 28) #16
  store ptr %22, ptr %7, align 8
  %23 = load ptr, ptr %7, align 8
  %24 = load ptr, ptr %4, align 8
  call void @llvm.memcpy.p0.p0.i64(ptr align 4 %23, ptr align 4 %24, i64 28, i1 false)
  %25 = load ptr, ptr @pdcp_security_hash, align 8
  %26 = load i16, ptr %3, align 2
  %27 = zext i16 %26 to i32
  %28 = zext i32 %27 to i64
  %29 = inttoptr i64 %28 to ptr
  %30 = load ptr, ptr %7, align 8
  %31 = call ptr @wmem_map_insert(ptr noundef %25, ptr noundef %29, ptr noundef %30)
  br label %65

32:                                               ; preds = %11
  %33 = load ptr, ptr %7, align 8
  %34 = getelementptr inbounds nuw %struct.pdcp_lte_security_info_t, ptr %33, i32 0, i32 0
  %35 = load i32, ptr %34, align 4
  %36 = load ptr, ptr %7, align 8
  %37 = getelementptr inbounds nuw %struct.pdcp_lte_security_info_t, ptr %36, i32 0, i32 4
  store i32 %35, ptr %37, align 4
  %38 = load ptr, ptr %7, align 8
  %39 = getelementptr inbounds nuw %struct.pdcp_lte_security_info_t, ptr %38, i32 0, i32 2
  %40 = load i32, ptr %39, align 4
  %41 = load ptr, ptr %7, align 8
  %42 = getelementptr inbounds nuw %struct.pdcp_lte_security_info_t, ptr %41, i32 0, i32 5
  store i32 %40, ptr %42, align 4
  %43 = load ptr, ptr %7, align 8
  %44 = getelementptr inbounds nuw %struct.pdcp_lte_security_info_t, ptr %43, i32 0, i32 3
  %45 = load i32, ptr %44, align 4
  %46 = load ptr, ptr %7, align 8
  %47 = getelementptr inbounds nuw %struct.pdcp_lte_security_info_t, ptr %46, i32 0, i32 6
  store i32 %45, ptr %47, align 4
  %48 = load ptr, ptr %4, align 8
  %49 = getelementptr inbounds nuw %struct.pdcp_lte_security_info_t, ptr %48, i32 0, i32 0
  %50 = load i32, ptr %49, align 4
  %51 = load ptr, ptr %7, align 8
  %52 = getelementptr inbounds nuw %struct.pdcp_lte_security_info_t, ptr %51, i32 0, i32 0
  store i32 %50, ptr %52, align 4
  %53 = load ptr, ptr %4, align 8
  %54 = getelementptr inbounds nuw %struct.pdcp_lte_security_info_t, ptr %53, i32 0, i32 2
  %55 = load i32, ptr %54, align 4
  %56 = load ptr, ptr %7, align 8
  %57 = getelementptr inbounds nuw %struct.pdcp_lte_security_info_t, ptr %56, i32 0, i32 2
  store i32 %55, ptr %57, align 4
  %58 = load ptr, ptr %4, align 8
  %59 = getelementptr inbounds nuw %struct.pdcp_lte_security_info_t, ptr %58, i32 0, i32 3
  %60 = load i32, ptr %59, align 4
  %61 = load ptr, ptr %7, align 8
  %62 = getelementptr inbounds nuw %struct.pdcp_lte_security_info_t, ptr %61, i32 0, i32 3
  store i32 %60, ptr %62, align 4
  %63 = load ptr, ptr %7, align 8
  %64 = getelementptr inbounds nuw %struct.pdcp_lte_security_info_t, ptr %63, i32 0, i32 1
  store i8 0, ptr %64, align 4
  br label %65

65:                                               ; preds = %32, %20
  %66 = call ptr @wmem_file_scope()
  %67 = call noalias ptr @wmem_alloc(ptr noundef %66, i64 noundef 28) #16
  store ptr %67, ptr %5, align 8
  %68 = load ptr, ptr %5, align 8
  %69 = load ptr, ptr %7, align 8
  call void @llvm.memcpy.p0.p0.i64(ptr align 4 %68, ptr align 4 %69, i64 28, i1 false)
  %70 = load ptr, ptr @pdcp_security_result_hash, align 8
  %71 = load i16, ptr %3, align 2
  %72 = load ptr, ptr %7, align 8
  %73 = getelementptr inbounds nuw %struct.pdcp_lte_security_info_t, ptr %72, i32 0, i32 0
  %74 = load i32, ptr %73, align 4
  %75 = call ptr @get_ueid_frame_hash_key(i16 noundef zeroext %71, i32 noundef %74, i1 noundef zeroext true)
  %76 = load ptr, ptr %5, align 8
  %77 = call ptr @wmem_map_insert(ptr noundef %70, ptr noundef %75, ptr noundef %76)
  call void @llvm.lifetime.end.p0(i64 8, ptr %7) #15
  store i32 0, ptr %6, align 4
  br label %78

78:                                               ; preds = %65, %10
  call void @llvm.lifetime.end.p0(i64 8, ptr %5) #15
  %79 = load i32, ptr %6, align 4
  switch i32 %79, label %81 [
    i32 0, label %80
    i32 1, label %80
  ]

80:                                               ; preds = %78, %78
  ret void

81:                                               ; preds = %78
  unreachable
}