; Function Attrs: null_pointer_is_valid sspstrong uwtable
define hidden void @set_pdcp_lte_security_algorithms(i16 noundef zeroext %0, ptr noundef readonly captures(none) %1) local_unnamed_addr #0 {
  %3 = load i8, ptr @global_pdcp_ignore_sec, align 1, !range !9, !noundef !10
  %4 = trunc nuw i8 %3 to i1
  br i1 %4, label %40, label %5

5:                                                ; preds = %2
  %6 = load ptr, ptr @pdcp_security_hash, align 8
  %7 = zext i16 %0 to i64
  %8 = inttoptr i64 %7 to ptr
  %9 = tail call ptr @wmem_map_lookup(ptr noundef %6, ptr noundef %8)
  %10 = icmp eq ptr %9, null
  br i1 %10, label %11, label %16

11:                                               ; preds = %5
  %12 = tail call ptr @wmem_file_scope()
  %13 = tail call noalias dereferenceable_or_null(28) ptr @wmem_alloc(ptr noundef %12, i64 noundef 28) #16
  tail call void @llvm.memcpy.p0.p0.i64(ptr noundef align 4 dereferenceable(28) %13, ptr noundef align 4 dereferenceable(28) %1, i64 28, i1 false)
  %14 = load ptr, ptr @pdcp_security_hash, align 8
  %15 = tail call ptr @wmem_map_insert(ptr noundef %14, ptr noundef %8, ptr noundef %13)
  br label %31

16:                                               ; preds = %5
  %17 = load i32, ptr %9, align 4
  %18 = getelementptr inbounds nuw i8, ptr %9, i64 16
  store i32 %17, ptr %18, align 4
  %19 = getelementptr inbounds nuw i8, ptr %9, i64 8
  %20 = load i32, ptr %19, align 4
  %21 = getelementptr inbounds nuw i8, ptr %9, i64 20
  store i32 %20, ptr %21, align 4
  %22 = getelementptr inbounds nuw i8, ptr %9, i64 12
  %23 = load i32, ptr %22, align 4
  %24 = getelementptr inbounds nuw i8, ptr %9, i64 24
  store i32 %23, ptr %24, align 4
  %25 = load i32, ptr %1, align 4
  store i32 %25, ptr %9, align 4
  %26 = getelementptr inbounds nuw i8, ptr %1, i64 8
  %27 = load i32, ptr %26, align 4
  store i32 %27, ptr %19, align 4
  %28 = getelementptr inbounds nuw i8, ptr %1, i64 12
  %29 = load i32, ptr %28, align 4
  store i32 %29, ptr %22, align 4
  %30 = getelementptr inbounds nuw i8, ptr %9, i64 4
  store i8 0, ptr %30, align 4
  br label %31

31:                                               ; preds = %16, %11
  %.0 = phi ptr [ %13, %11 ], [ %9, %16 ]
  %32 = tail call ptr @wmem_file_scope()
  %33 = tail call noalias dereferenceable_or_null(28) ptr @wmem_alloc(ptr noundef %32, i64 noundef 28) #16
  tail call void @llvm.memcpy.p0.p0.i64(ptr noundef align 4 dereferenceable(28) %33, ptr noundef align 4 dereferenceable(28) %.0, i64 28, i1 false)
  %34 = load ptr, ptr @pdcp_security_result_hash, align 8
  %35 = load i32, ptr %.0, align 4
  %36 = tail call ptr @wmem_file_scope()
  %37 = tail call noalias dereferenceable_or_null(8) ptr @wmem_alloc(ptr noundef %36, i64 noundef 8) #16
  store i32 %35, ptr %37, align 4
  %38 = getelementptr inbounds nuw i8, ptr %37, i64 4
  store i16 %0, ptr %38, align 4
  %39 = tail call ptr @wmem_map_insert(ptr noundef %34, ptr noundef %37, ptr noundef %33)
  br label %40

40:                                               ; preds = %2, %31
  ret void
}